target datalayout = "e-m:e-p270:32:32-p271:32:32-p272:64:64-i64:64-i128:128-f80:128-n8:16:32:64-S128"
target triple = "x86_64-pc-linux-gnu"

@hf_rpc_value_follows = internal global i32 0, align 4

; Function Attrs: null_pointer_is_valid sspstrong uwtable
define i32 @dissect_rpc_list(ptr noundef %0, ptr noundef %1, ptr noundef %2, i32 noundef %3, ptr noundef %4, ptr noundef %5) #0 {
  %7 = alloca ptr, align 8
  %8 = alloca ptr, align 8
  %9 = alloca ptr, align 8
  %10 = alloca i32, align 4
  %11 = alloca ptr, align 8
  %12 = alloca ptr, align 8
  %13 = alloca i32, align 4
  store ptr %0, ptr %7, align 8
  store ptr %1, ptr %8, align 8
  store ptr %2, ptr %9, align 8
  store i32 %3, ptr %10, align 4
  store ptr %4, ptr %11, align 8
  store ptr %5, ptr %12, align 8
  call void @llvm.lifetime.start.p0(i64 4, ptr %13) #18
  br label %14

14:                                               ; preds = %39, %6
  br label %15

15:                                               ; preds = %14
  %16 = load ptr, ptr %7, align 8
  %17 = load i32, ptr %10, align 4
  %18 = call i32 @tvb_get_ntohl(ptr noundef %16, i32 noundef %17)
  store i32 %18, ptr %13, align 4
  %19 = load ptr, ptr %9, align 8
  %20 = load i32, ptr @hf_rpc_value_follows, align 4
  %21 = load ptr, ptr %7, align 8
  %22 = load i32, ptr %10, align 4
  %23 = load i32, ptr %13, align 4
  %24 = zext i32 %23 to i64
  %25 = call ptr @proto_tree_add_boolean(ptr noundef %19, i32 noundef %20, ptr noundef %21, i32 noundef %22, i32 noundef 4, i64 noundef %24)
  %26 = load i32, ptr %10, align 4
  %27 = add i32 %26, 4
  store i32 %27, ptr %10, align 4
  %28 = load i32, ptr %13, align 4
  %29 = icmp eq i32 %28, 1
  br i1 %29, label %30, label %38

30:                                               ; preds = %15
  %31 = load ptr, ptr %11, align 8
  %32 = load ptr, ptr %7, align 8
  %33 = load i32, ptr %10, align 4
  %34 = load ptr, ptr %8, align 8
  %35 = load ptr, ptr %9, align 8
  %36 = load ptr, ptr %12, align 8
  %37 = call i32 %31(ptr noundef %32, i32 noundef %33, ptr noundef %34, ptr noundef %35, ptr noundef %36)
  store i32 %37, ptr %10, align 4
  br label %39

38:                                               ; preds = %15
  br label %40

39:                                               ; preds = %30
  br label %14

40:                                               ; preds = %38
  %41 = load i32, ptr %10, align 4
  call void @llvm.lifetime.end.p0(i64 4, ptr %13) #18
  ret i32 %41
}