; Function Attrs: null_pointer_is_valid sspstrong uwtable
define noundef i32 @dissect_rpc_list(ptr noundef %0, ptr noundef %1, ptr noundef %2, i32 noundef %3, ptr noundef readonly captures(none) %4, ptr noundef %5) local_unnamed_addr #0 {
  %7 = tail call i32 @tvb_get_ntohl(ptr noundef %0, i32 noundef %3)
  %8 = load i32, ptr @hf_rpc_value_follows, align 4
  %9 = zext i32 %7 to i64
  %10 = tail call ptr @proto_tree_add_boolean(ptr noundef %2, i32 noundef %8, ptr noundef %0, i32 noundef %3, i32 noundef 4, i64 noundef %9)
  %11 = add i32 %3, 4
  %12 = icmp eq i32 %7, 1
  br i1 %12, label %.lr.ph, label %._crit_edge

.lr.ph:                                           ; preds = %6, %.lr.ph
  %13 = phi i32 [ %19, %.lr.ph ], [ %11, %6 ]
  %14 = tail call i32 %4(ptr noundef %0, i32 noundef %13, ptr noundef %1, ptr noundef %2, ptr noundef %5)
  %15 = tail call i32 @tvb_get_ntohl(ptr noundef %0, i32 noundef %14)
  %16 = load i32, ptr @hf_rpc_value_follows, align 4
  %17 = zext i32 %15 to i64
  %18 = tail call ptr @proto_tree_add_boolean(ptr noundef %2, i32 noundef %16, ptr noundef %0, i32 noundef %14, i32 noundef 4, i64 noundef %17)
  %19 = add i32 %14, 4
  %20 = icmp eq i32 %15, 1
  br i1 %20, label %.lr.ph, label %._crit_edge

._crit_edge:                                      ; preds = %.lr.ph, %6
  %.lcssa = phi i32 [ %11, %6 ], [ %19, %.lr.ph ]
  ret i32 %.lcssa
}